#include <math.h>
#include <stdio.h>
#include <stdlib.h>
#include <string.h>

int main()
{
    int ans[100], total, answer;
    int n, i, j;
    total = 0;
    for (i=1;i<100;i++)
    {
        total ++;
        ans[total] = i * i;
        j = i;
        if (j % 7 == 0) {total--;continue;}
        while (j)
        {
            if (j % 10 == 7)
            {
                total --;
                break;
            }
            j /= 10;
        }
    }
    scanf("%d", &n);
    answer = 0;
    for (i=1; i<=total; i++)
    {
        if (n * n < ans[i]) break;
        answer += ans[i];
    }
    printf("%d", answer);
    return 0;
}
